; ModuleID = '9/742.c'
source_filename = "9/742.c"
target datalayout = "e-m:e-p270:32:32-p271:32:32-p272:64:64-i64:64-f80:128-n8:16:32:64-S128"
target triple = "x86_64-pc-linux-gnu"

%struct.patient = type { [10 x i8], i32 }

@.str = private unnamed_addr constant [3 x i8] c"%d\00", align 1
@.str.1 = private unnamed_addr constant [5 x i8] c"%s%d\00", align 1
@p = common dso_local global [100 x %struct.patient] zeroinitializer, align 16
@.str.2 = private unnamed_addr constant [4 x i8] c"%s\0A\00", align 1

; Function Attrs: noinline nounwind uwtable
define dso_local void @main() #0 {
  %1 = alloca i32, align 4
  %2 = alloca i32, align 4
  %3 = alloca i32, align 4
  %4 = alloca i32, align 4
  %5 = alloca i32, align 4
  %6 = alloca i32, align 4
  %7 = alloca [100 x [10 x i8]], align 16
  %8 = alloca [10 x i8], align 1
  %9 = alloca [100 x %struct.patient], align 16
  store i32 0, i32* %2, align 4
  store i32 0, i32* %3, align 4
  %10 = call i32 (i8*, ...) @__isoc99_scanf(i8* getelementptr inbounds ([3 x i8], [3 x i8]* @.str, i64 0, i64 0), i32* %6)
  store i32 0, i32* %1, align 4
  br label %11

11:                                               ; preds = %26, %0
  %12 = load i32, i32* %1, align 4
  %13 = load i32, i32* %6, align 4
  %14 = icmp slt i32 %12, %13
  br i1 %14, label %15, label %29

15:                                               ; preds = %11
  %16 = load i32, i32* %1, align 4
  %17 = sext i32 %16 to i64
  %18 = getelementptr inbounds [100 x %struct.patient], [100 x %struct.patient]* @p, i64 0, i64 %17
  %19 = getelementptr inbounds %struct.patient, %struct.patient* %18, i32 0, i32 0
  %20 = getelementptr inbounds [10 x i8], [10 x i8]* %19, i64 0, i64 0
  %21 = load i32, i32* %1, align 4
  %22 = sext i32 %21 to i64
  %23 = getelementptr inbounds [100 x %struct.patient], [100 x %struct.patient]* @p, i64 0, i64 %22
  %24 = getelementptr inbounds %struct.patient, %struct.patient* %23, i32 0, i32 1
  %25 = call i32 (i8*, ...) @__isoc99_scanf(i8* getelementptr inbounds ([5 x i8], [5 x i8]* @.str.1, i64 0, i64 0), i8* %20, i32* %24)
  br label %26

26:                                               ; preds = %15
  %27 = load i32, i32* %1, align 4
  %28 = add nsw i32 %27, 1
  store i32 %28, i32* %1, align 4
  br label %11

29:                                               ; preds = %11
  store i32 0, i32* %1, align 4
  br label %30

30:                                               ; preds = %78, %29
  %31 = load i32, i32* %1, align 4
  %32 = load i32, i32* %6, align 4
  %33 = icmp slt i32 %31, %32
  br i1 %33, label %34, label %81

34:                                               ; preds = %30
  %35 = load i32, i32* %1, align 4
  %36 = sext i32 %35 to i64
  %37 = getelementptr inbounds [100 x %struct.patient], [100 x %struct.patient]* @p, i64 0, i64 %36
  %38 = getelementptr inbounds %struct.patient, %struct.patient* %37, i32 0, i32 1
  %39 = load i32, i32* %38, align 4
  %40 = icmp sge i32 %39, 60
  br i1 %40, label %41, label %64

41:                                               ; preds = %34
  %42 = load i32, i32* %2, align 4
  %43 = sext i32 %42 to i64
  %44 = getelementptr inbounds [100 x %struct.patient], [100 x %struct.patient]* %9, i64 0, i64 %43
  %45 = getelementptr inbounds %struct.patient, %struct.patient* %44, i32 0, i32 0
  %46 = getelementptr inbounds [10 x i8], [10 x i8]* %45, i64 0, i64 0
  %47 = load i32, i32* %1, align 4
  %48 = sext i32 %47 to i64
  %49 = getelementptr inbounds [100 x %struct.patient], [100 x %struct.patient]* @p, i64 0, i64 %48
  %50 = getelementptr inbounds %struct.patient, %struct.patient* %49, i32 0, i32 0
  %51 = getelementptr inbounds [10 x i8], [10 x i8]* %50, i64 0, i64 0
  %52 = call i8* @strcpy(i8* %46, i8* %51) #3
  %53 = load i32, i32* %1, align 4
  %54 = sext i32 %53 to i64
  %55 = getelementptr inbounds [100 x %struct.patient], [100 x %struct.patient]* @p, i64 0, i64 %54
  %56 = getelementptr inbounds %struct.patient, %struct.patient* %55, i32 0, i32 1
  %57 = load i32, i32* %56, align 4
  %58 = load i32, i32* %2, align 4
  %59 = sext i32 %58 to i64
  %60 = getelementptr inbounds [100 x %struct.patient], [100 x %struct.patient]* %9, i64 0, i64 %59
  %61 = getelementptr inbounds %struct.patient, %struct.patient* %60, i32 0, i32 1
  store i32 %57, i32* %61, align 4
  %62 = load i32, i32* %2, align 4
  %63 = add nsw i32 %62, 1
  store i32 %63, i32* %2, align 4
  br label %77

64:                                               ; preds = %34
  %65 = load i32, i32* %3, align 4
  %66 = sext i32 %65 to i64
  %67 = getelementptr inbounds [100 x [10 x i8]], [100 x [10 x i8]]* %7, i64 0, i64 %66
  %68 = getelementptr inbounds [10 x i8], [10 x i8]* %67, i64 0, i64 0
  %69 = load i32, i32* %1, align 4
  %70 = sext i32 %69 to i64
  %71 = getelementptr inbounds [100 x %struct.patient], [100 x %struct.patient]* @p, i64 0, i64 %70
  %72 = getelementptr inbounds %struct.patient, %struct.patient* %71, i32 0, i32 0
  %73 = getelementptr inbounds [10 x i8], [10 x i8]* %72, i64 0, i64 0
  %74 = call i8* @strcpy(i8* %68, i8* %73) #3
  %75 = load i32, i32* %3, align 4
  %76 = add nsw i32 %75, 1
  store i32 %76, i32* %3, align 4
  br label %77

77:                                               ; preds = %64, %41
  br label %78

78:                                               ; preds = %77
  %79 = load i32, i32* %1, align 4
  %80 = add nsw i32 %79, 1
  store i32 %80, i32* %1, align 4
  br label %30

81:                                               ; preds = %30
  store i32 0, i32* %1, align 4
  br label %82

82:                                               ; preds = %162, %81
  %83 = load i32, i32* %1, align 4
  %84 = load i32, i32* %2, align 4
  %85 = sub nsw i32 %84, 1
  %86 = icmp slt i32 %83, %85
  br i1 %86, label %87, label %165

87:                                               ; preds = %82
  store i32 0, i32* %5, align 4
  br label %88

88:                                               ; preds = %158, %87
  %89 = load i32, i32* %5, align 4
  %90 = load i32, i32* %2, align 4
  %91 = sub nsw i32 %90, 1
  %92 = load i32, i32* %1, align 4
  %93 = sub nsw i32 %91, %92
  %94 = icmp slt i32 %89, %93
  br i1 %94, label %95, label %161

95:                                               ; preds = %88
  %96 = load i32, i32* %5, align 4
  %97 = sext i32 %96 to i64
  %98 = getelementptr inbounds [100 x %struct.patient], [100 x %struct.patient]* %9, i64 0, i64 %97
  %99 = getelementptr inbounds %struct.patient, %struct.patient* %98, i32 0, i32 1
  %100 = load i32, i32* %99, align 4
  %101 = load i32, i32* %5, align 4
  %102 = add nsw i32 %101, 1
  %103 = sext i32 %102 to i64
  %104 = getelementptr inbounds [100 x %struct.patient], [100 x %struct.patient]* %9, i64 0, i64 %103
  %105 = getelementptr inbounds %struct.patient, %struct.patient* %104, i32 0, i32 1
  %106 = load i32, i32* %105, align 4
  %107 = icmp slt i32 %100, %106
  br i1 %107, label %108, label %157

108:                                              ; preds = %95
  %109 = load i32, i32* %5, align 4
  %110 = sext i32 %109 to i64
  %111 = getelementptr inbounds [100 x %struct.patient], [100 x %struct.patient]* %9, i64 0, i64 %110
  %112 = getelementptr inbounds %struct.patient, %struct.patient* %111, i32 0, i32 1
  %113 = load i32, i32* %112, align 4
  store i32 %113, i32* %4, align 4
  %114 = load i32, i32* %5, align 4
  %115 = add nsw i32 %114, 1
  %116 = sext i32 %115 to i64
  %117 = getelementptr inbounds [100 x %struct.patient], [100 x %struct.patient]* %9, i64 0, i64 %116
  %118 = getelementptr inbounds %struct.patient, %struct.patient* %117, i32 0, i32 1
  %119 = load i32, i32* %118, align 4
  %120 = load i32, i32* %5, align 4
  %121 = sext i32 %120 to i64
  %122 = getelementptr inbounds [100 x %struct.patient], [100 x %struct.patient]* %9, i64 0, i64 %121
  %123 = getelementptr inbounds %struct.patient, %struct.patient* %122, i32 0, i32 1
  store i32 %119, i32* %123, align 4
  %124 = load i32, i32* %4, align 4
  %125 = load i32, i32* %5, align 4
  %126 = add nsw i32 %125, 1
  %127 = sext i32 %126 to i64
  %128 = getelementptr inbounds [100 x %struct.patient], [100 x %struct.patient]* %9, i64 0, i64 %127
  %129 = getelementptr inbounds %struct.patient, %struct.patient* %128, i32 0, i32 1
  store i32 %124, i32* %129, align 4
  %130 = getelementptr inbounds [10 x i8], [10 x i8]* %8, i64 0, i64 0
  %131 = load i32, i32* %5, align 4
  %132 = sext i32 %131 to i64
  %133 = getelementptr inbounds [100 x %struct.patient], [100 x %struct.patient]* %9, i64 0, i64 %132
  %134 = getelementptr inbounds %struct.patient, %struct.patient* %133, i32 0, i32 0
  %135 = getelementptr inbounds [10 x i8], [10 x i8]* %134, i64 0, i64 0
  %136 = call i8* @strcpy(i8* %130, i8* %135) #3
  %137 = load i32, i32* %5, align 4
  %138 = sext i32 %137 to i64
  %139 = getelementptr inbounds [100 x %struct.patient], [100 x %struct.patient]* %9, i64 0, i64 %138
  %140 = getelementptr inbounds %struct.patient, %struct.patient* %139, i32 0, i32 0
  %141 = getelementptr inbounds [10 x i8], [10 x i8]* %140, i64 0, i64 0
  %142 = load i32, i32* %5, align 4
  %143 = add nsw i32 %142, 1
  %144 = sext i32 %143 to i64
  %145 = getelementptr inbounds [100 x %struct.patient], [100 x %struct.patient]* %9, i64 0, i64 %144
  %146 = getelementptr inbounds %struct.patient, %struct.patient* %145, i32 0, i32 0
  %147 = getelementptr inbounds [10 x i8], [10 x i8]* %146, i64 0, i64 0
  %148 = call i8* @strcpy(i8* %141, i8* %147) #3
  %149 = load i32, i32* %5, align 4
  %150 = add nsw i32 %149, 1
  %151 = sext i32 %150 to i64
  %152 = getelementptr inbounds [100 x %struct.patient], [100 x %struct.patient]* %9, i64 0, i64 %151
  %153 = getelementptr inbounds %struct.patient, %struct.patient* %152, i32 0, i32 0
  %154 = getelementptr inbounds [10 x i8], [10 x i8]* %153, i64 0, i64 0
  %155 = getelementptr inbounds [10 x i8], [10 x i8]* %8, i64 0, i64 0
  %156 = call i8* @strcpy(i8* %154, i8* %155) #3
  br label %157

157:                                              ; preds = %108, %95
  br label %158

158:                                              ; preds = %157
  %159 = load i32, i32* %5, align 4
  %160 = add nsw i32 %159, 1
  store i32 %160, i32* %5, align 4
  br label %88

161:                                              ; preds = %88
  br label %162

162:                                              ; preds = %161
  %163 = load i32, i32* %1, align 4
  %164 = add nsw i32 %163, 1
  store i32 %164, i32* %1, align 4
  br label %82

165:                                              ; preds = %82
  store i32 0, i32* %1, align 4
  br label %166

166:                                              ; preds = %177, %165
  %167 = load i32, i32* %1, align 4
  %168 = load i32, i32* %2, align 4
  %169 = icmp slt i32 %167, %168
  br i1 %169, label %170, label %180

170:                                              ; preds = %166
  %171 = load i32, i32* %1, align 4
  %172 = sext i32 %171 to i64
  %173 = getelementptr inbounds [100 x %struct.patient], [100 x %struct.patient]* %9, i64 0, i64 %172
  %174 = getelementptr inbounds %struct.patient, %struct.patient* %173, i32 0, i32 0
  %175 = getelementptr inbounds [10 x i8], [10 x i8]* %174, i64 0, i64 0
  %176 = call i32 (i8*, ...) @printf(i8* getelementptr inbounds ([4 x i8], [4 x i8]* @.str.2, i64 0, i64 0), i8* %175)
  br label %177

177:                                              ; preds = %170
  %178 = load i32, i32* %1, align 4
  %179 = add nsw i32 %178, 1
  store i32 %179, i32* %1, align 4
  br label %166

180:                                              ; preds = %166
  store i32 0, i32* %1, align 4
  br label %181

181:                                              ; preds = %191, %180
  %182 = load i32, i32* %1, align 4
  %183 = load i32, i32* %3, align 4
  %184 = icmp slt i32 %182, %183
  br i1 %184, label %185, label %194

185:                                              ; preds = %181
  %186 = load i32, i32* %1, align 4
  %187 = sext i32 %186 to i64
  %188 = getelementptr inbounds [100 x [10 x i8]], [100 x [10 x i8]]* %7, i64 0, i64 %187
  %189 = getelementptr inbounds [10 x i8], [10 x i8]* %188, i64 0, i64 0
  %190 = call i32 (i8*, ...) @printf(i8* getelementptr inbounds ([4 x i8], [4 x i8]* @.str.2, i64 0, i64 0), i8* %189)
  br label %191

191:                                              ; preds = %185
  %192 = load i32, i32* %1, align 4
  %193 = add nsw i32 %192, 1
  store i32 %193, i32* %1, align 4
  br label %181

194:                                              ; preds = %181
  ret void
}

declare dso_local i32 @__isoc99_scanf(i8*, ...) #1

; Function Attrs: nounwind
declare dso_local i8* @strcpy(i8*, i8*) #2

declare dso_local i32 @printf(i8*, ...) #1


!llvm.module.flags = !{!0}
!llvm.ident = !{!1}

!0 = !{i32 1, !"wchar_size", i32 4}
!1 = !{!"clang version 10.0.0-4ubuntu1 "}
